; Function Attrs: mustprogress nounwind uwtable
define hidden noundef ptr @_ZN9ZUnmapper7dequeueEv(ptr noundef nonnull align 8 dereferenceable(1050) %0) local_unnamed_addr #0 align 2 {
  %2 = getelementptr inbounds i8, ptr %0, i64 928
  %3 = tail call i32 @pthread_mutex_lock(ptr noundef nonnull %2) #9
  %4 = getelementptr inbounds i8, ptr %0, i64 1049
  %5 = load i8, ptr %4, align 1
  %6 = trunc i8 %5 to i1
  br i1 %6, label %_ZN7ZLockerI14ZConditionLockED2Ev.exit, label %.lr.ph

.lr.ph:                                           ; preds = %1
  %7 = getelementptr inbounds i8, ptr %0, i64 1016
  %8 = getelementptr inbounds i8, ptr %0, i64 1032
  br label %9

9:                                                ; preds = %.lr.ph, %33
  %10 = load i64, ptr %8, align 8
  %11 = icmp eq i64 %10, 0
  %12 = load ptr, ptr %7, align 8
  %13 = ptrtoint ptr %12 to i64
  %14 = add i64 %13, -176
  %.not.i7 = icmp eq i64 %14, 0
  %.not.i = select i1 %11, i1 true, i1 %.not.i7
  br i1 %.not.i, label %33, label %15

15:                                               ; preds = %9
  %16 = inttoptr i64 %14 to ptr
  %17 = getelementptr inbounds i8, ptr %16, i64 176
  %18 = load ptr, ptr %17, align 8
  %19 = getelementptr inbounds i8, ptr %16, i64 184
  %20 = load ptr, ptr %19, align 8
  %21 = load ptr, ptr %20, align 8
  store ptr %21, ptr %17, align 8
  %22 = getelementptr inbounds i8, ptr %18, i64 8
  %23 = load ptr, ptr %22, align 8
  store ptr %23, ptr %19, align 8
  store ptr %20, ptr %22, align 8
  store ptr %18, ptr %20, align 8
  %24 = load i64, ptr %8, align 8
  %25 = add i64 %24, -1
  store i64 %25, ptr %8, align 8
  %26 = getelementptr inbounds i8, ptr %16, i64 16
  %27 = getelementptr inbounds i8, ptr %16, i64 24
  %28 = load i64, ptr %27, align 8
  %29 = load i64, ptr %26, align 8
  %.neg = sub i64 %29, %28
  %30 = getelementptr inbounds i8, ptr %0, i64 1040
  %31 = load i64, ptr %30, align 8
  %32 = add i64 %.neg, %31
  store i64 %32, ptr %30, align 8
  br label %_ZN7ZLockerI14ZConditionLockED2Ev.exit

33:                                               ; preds = %9
  %34 = tail call noundef i32 @_ZN15PlatformMonitor4waitEm(ptr noundef nonnull align 8 dereferenceable(88) %2, i64 noundef 0) #9
  %35 = load i8, ptr %4, align 1
  %36 = trunc i8 %35 to i1
  br i1 %36, label %_ZN7ZLockerI14ZConditionLockED2Ev.exit, label %9, !llvm.loop !6

_ZN7ZLockerI14ZConditionLockED2Ev.exit:           ; preds = %33, %1, %15
  %.0 = phi ptr [ %16, %15 ], [ null, %1 ], [ null, %33 ]
  %37 = tail call i32 @pthread_mutex_unlock(ptr noundef nonnull %2) #9
  ret ptr %.0
}